; Function Attrs: mustprogress uwtable
define internal noalias noundef ptr @_ZN5YosysL22readline_cmd_generatorEPKci(ptr noundef %0, i32 noundef %1) #5 personality ptr @__gxx_personality_v0 {
  %3 = load atomic i8, ptr @_ZGVZN5YosysL22readline_cmd_generatorEPKciE2itB5cxx11 acquire, align 8
  %4 = icmp eq i8 %3, 0
  br i1 %4, label %5, label %8, !prof !77

5:                                                ; preds = %2
  %6 = tail call i32 @__cxa_guard_acquire(ptr nonnull @_ZGVZN5YosysL22readline_cmd_generatorEPKciE2itB5cxx11) #39
  %.not = icmp eq i32 %6, 0
  br i1 %.not, label %8, label %7

7:                                                ; preds = %5
  store ptr null, ptr @_ZZN5YosysL22readline_cmd_generatorEPKciE2itB5cxx11.0, align 8, !tbaa !694
  tail call void @__cxa_guard_release(ptr nonnull @_ZGVZN5YosysL22readline_cmd_generatorEPKciE2itB5cxx11) #39
  br label %8

8:                                                ; preds = %7, %5, %2
  %.not4 = icmp eq i32 %1, 0
  br i1 %.not4, label %9, label %._crit_edge

._crit_edge:                                      ; preds = %8
  %.pr.pre = load ptr, ptr @_ZZN5YosysL22readline_cmd_generatorEPKciE2itB5cxx11.0, align 8, !tbaa !694
  br label %13

9:                                                ; preds = %8
  %10 = load ptr, ptr getelementptr inbounds nuw (i8, ptr @_ZN5Yosys13pass_registerB5cxx11E, i64 24), align 8, !tbaa !126
  store ptr %10, ptr @_ZZN5YosysL22readline_cmd_generatorEPKciE2itB5cxx11.0, align 8, !tbaa !696
  %11 = tail call i64 @strlen(ptr noundef nonnull dereferenceable(1) %0) #44
  %12 = trunc i64 %11 to i32
  store i32 %12, ptr @_ZZN5YosysL22readline_cmd_generatorEPKciE3len, align 4, !tbaa !23
  br label %13

13:                                               ; preds = %._crit_edge, %9
  %.pr = phi ptr [ %.pr.pre, %._crit_edge ], [ %10, %9 ]
  %.not78 = icmp eq ptr %.pr, getelementptr inbounds nuw (i8, ptr @_ZN5Yosys13pass_registerB5cxx11E, i64 8)
  br i1 %.not78, label %.loopexit, label %.lr.ph

.lr.ph:                                           ; preds = %13, %25
  %14 = phi ptr [ %20, %25 ], [ %.pr, %13 ]
  %15 = getelementptr inbounds nuw i8, ptr %14, i64 32
  %16 = load i32, ptr @_ZZN5YosysL22readline_cmd_generatorEPKciE3len, align 4, !tbaa !23
  %17 = sext i32 %16 to i64
  %18 = tail call noundef i32 @_ZNKSt7__cxx1112basic_stringIcSt11char_traitsIcESaIcEE7compareEmmPKc(ptr noundef nonnull align 8 dereferenceable(32) %15, i64 noundef 0, i64 noundef %17, ptr noundef %0)
  %19 = icmp eq i32 %18, 0
  %.sroa.0.0.copyload.i = load ptr, ptr @_ZZN5YosysL22readline_cmd_generatorEPKciE2itB5cxx11.0, align 8, !tbaa !696
  %20 = tail call noundef ptr @_ZSt18_Rb_tree_incrementPSt18_Rb_tree_node_base(ptr noundef %.sroa.0.0.copyload.i) #44
  store ptr %20, ptr @_ZZN5YosysL22readline_cmd_generatorEPKciE2itB5cxx11.0, align 8, !tbaa !694
  br i1 %19, label %21, label %25

21:                                               ; preds = %.lr.ph
  %22 = getelementptr inbounds nuw i8, ptr %.sroa.0.0.copyload.i, i64 32
  %23 = load ptr, ptr %22, align 8, !tbaa !44
  %24 = tail call noalias ptr @strdup(ptr noundef %23) #39
  br label %.loopexit

25:                                               ; preds = %.lr.ph
  %.not7 = icmp eq ptr %20, getelementptr inbounds nuw (i8, ptr @_ZN5Yosys13pass_registerB5cxx11E, i64 8)
  br i1 %.not7, label %.loopexit, label %.lr.ph, !llvm.loop !697

.loopexit:                                        ; preds = %25, %13, %21
  %.0 = phi ptr [ %24, %21 ], [ null, %13 ], [ null, %25 ]
  ret ptr %.0
}